target datalayout = "e-m:e-p270:32:32-p271:32:32-p272:64:64-i64:64-i128:128-f80:128-n8:16:32:64-S128"
target triple = "x86_64-pc-linux-gnu"

%"class.(anonymous namespace)::CHR" = type { ptr, ptr, ptr, ptr, ptr, ptr, %"struct.(anonymous namespace)::CHRStats", %"class.llvm::DenseSet", %"class.llvm::DenseSet", %"class.llvm::DenseSet.200", %"class.llvm::DenseSet.200", %"class.llvm::DenseMap.205", %"class.llvm::DenseMap.208", %"class.llvm::DenseSet.211", %"class.llvm::DenseMap.216" }
%"struct.(anonymous namespace)::CHRStats" = type { i64, i64, i64 }
%"class.llvm::DenseSet" = type { %"class.llvm::detail::DenseSetImpl" }
%"class.llvm::detail::DenseSetImpl" = type { %"class.llvm::DenseMap.197" }
%"class.llvm::DenseMap.197" = type <{ ptr, i32, i32, i32, [4 x i8] }>
%"class.llvm::DenseSet.200" = type { %"class.llvm::detail::DenseSetImpl.201" }
%"class.llvm::detail::DenseSetImpl.201" = type { %"class.llvm::DenseMap.202" }
%"class.llvm::DenseMap.202" = type <{ ptr, i32, i32, i32, [4 x i8] }>
%"class.llvm::DenseMap.205" = type <{ ptr, i32, i32, i32, [4 x i8] }>
%"class.llvm::DenseMap.208" = type <{ ptr, i32, i32, i32, [4 x i8] }>
%"class.llvm::DenseSet.211" = type { %"class.llvm::detail::DenseSetImpl.212" }
%"class.llvm::detail::DenseSetImpl.212" = type { %"class.llvm::DenseMap.213" }
%"class.llvm::DenseMap.213" = type <{ ptr, i32, i32, i32, [4 x i8] }>
%"class.llvm::DenseMap.216" = type <{ ptr, i32, i32, i32, [4 x i8] }>
%"class.llvm::User" = type { %"class.llvm::Value" }
%"class.llvm::Value" = type { i8, i8, i16, i32, ptr, ptr }
%"class.llvm::ilist_node_impl.306" = type { %"class.llvm::ilist_node_base.307" }
%"class.llvm::ilist_node_base.307" = type { %"class.llvm::ilist_detail::node_base_prevnext.308", %"class.llvm::ilist_detail::node_base_parent.309" }
%"class.llvm::ilist_detail::node_base_prevnext.308" = type { ptr, ptr }
%"class.llvm::ilist_detail::node_base_parent.309" = type { ptr }
%"class.llvm::Use" = type { ptr, ptr, ptr, ptr }
%"class.llvm::Instruction" = type { %"class.llvm::User", %"class.llvm::ilist_node_with_parent.311", %"class.llvm::DebugLoc", i32, ptr }
%"class.llvm::ilist_node_with_parent.311" = type { %"class.llvm::ilist_node.312" }
%"class.llvm::ilist_node.312" = type { %"class.llvm::ilist_node_impl.306" }
%"class.llvm::DebugLoc" = type { %"class.llvm::TypedTrackingMDRef" }
%"class.llvm::TypedTrackingMDRef" = type { %"class.llvm::TrackingMDRef" }
%"class.llvm::TrackingMDRef" = type { ptr }
%class.anon.569 = type { ptr, ptr }
%"class.llvm::PHINode" = type <{ %"class.llvm::Instruction", i32, [4 x i8] }>

; Function Attrs: mustprogress nounwind uwtable
define linkonce_odr hidden noundef nonnull align 8 dereferenceable(8) ptr @_ZN4llvm4User18getHungOffOperandsEv(ptr noundef nonnull align 8 dereferenceable(24) %0) #1 comdat align 2 {
  %2 = alloca ptr, align 8
  store ptr %0, ptr %2, align 8
  %3 = load ptr, ptr %2, align 8
  %4 = getelementptr inbounds ptr, ptr %3, i64 -1
  ret ptr %4
}

; Function Attrs: mustprogress nounwind uwtable
define linkonce_odr hidden noundef ptr @_ZN4llvm20HungoffOperandTraits8op_beginEPNS_4UserE(ptr noundef %0) #1 comdat align 2 {
  %2 = alloca ptr, align 8
  store ptr %0, ptr %2, align 8
  %3 = load ptr, ptr %2, align 8
  %4 = call noundef nonnull align 8 dereferenceable(8) ptr @_ZN4llvm4User18getHungOffOperandsEv(ptr noundef nonnull align 8 dereferenceable(24) %3)
  %5 = load ptr, ptr %4, align 8
  ret ptr %5
}

; Function Attrs: mustprogress nounwind uwtable
define linkonce_odr hidden noundef ptr @_ZNK4llvm7PHINode8op_beginEv(ptr noundef nonnull align 8 dereferenceable(76) %0) #1 comdat align 2 {
  %2 = alloca ptr, align 8
  store ptr %0, ptr %2, align 8
  %3 = load ptr, ptr %2, align 8
  %4 = call noundef ptr @_ZN4llvm20HungoffOperandTraits8op_beginEPNS_4UserE(ptr noundef %3)
  ret ptr %4
}

; Function Attrs: mustprogress nounwind uwtable
define linkonce_odr hidden noundef ptr @_ZNK4llvm7PHINode11block_beginEv(ptr noundef nonnull align 8 dereferenceable(76) %0) #1 comdat align 2 {
  %2 = alloca ptr, align 8
  store ptr %0, ptr %2, align 8
  %3 = load ptr, ptr %2, align 8
  %4 = call noundef ptr @_ZNK4llvm7PHINode8op_beginEv(ptr noundef nonnull align 8 dereferenceable(76) %3)
  %5 = getelementptr inbounds nuw %"class.llvm::PHINode", ptr %3, i32 0, i32 1
  %6 = load i32, ptr %5, align 8
  %7 = zext i32 %6 to i64
  %8 = getelementptr inbounds %"class.llvm::Use", ptr %4, i64 %7
  ret ptr %8
}

; Function Attrs: mustprogress nounwind uwtable
define linkonce_odr hidden noundef ptr @_ZNK4llvm7PHINode16getIncomingBlockEj(ptr noundef nonnull align 8 dereferenceable(76) %0, i32 noundef %1) #1 comdat align 2 {
  %3 = alloca ptr, align 8
  %4 = alloca i32, align 4
  store ptr %0, ptr %3, align 8
  store i32 %1, ptr %4, align 4
  %5 = load ptr, ptr %3, align 8
  %6 = call noundef ptr @_ZNK4llvm7PHINode11block_beginEv(ptr noundef nonnull align 8 dereferenceable(76) %5)
  %7 = load i32, ptr %4, align 4
  %8 = zext i32 %7 to i64
  %9 = getelementptr inbounds ptr, ptr %6, i64 %8
  %10 = load ptr, ptr %9, align 8
  ret ptr %10
}

; Function Attrs: mustprogress nounwind uwtable
define internal noundef zeroext i1 @"_ZZN12_GLOBAL__N_13CHR16cloneScopeBlocksEPNS_8CHRScopeEPN4llvm10BasicBlockES5_PNS3_6RegionERNS3_8ValueMapIPKNS3_5ValueENS3_14WeakTrackingVHENS3_14ValueMapConfigISB_NS3_3sys10SmartMutexILb0EEEEEEEENK3$_0clEj"(ptr noundef nonnull align 8 dereferenceable(16) %0, i32 noundef %1) #1 align 2 {
  %3 = alloca ptr, align 8
  %4 = alloca i32, align 4
  store ptr %0, ptr %3, align 8
  store i32 %1, ptr %4, align 4
  %5 = load ptr, ptr %3, align 8
  %6 = getelementptr inbounds nuw %class.anon.569, ptr %5, i32 0, i32 0
  %7 = load ptr, ptr %6, align 8
  %8 = getelementptr inbounds nuw %"class.(anonymous namespace)::CHR", ptr %7, i32 0, i32 2
  %9 = load ptr, ptr %8, align 8
  %10 = getelementptr inbounds nuw %class.anon.569, ptr %5, i32 0, i32 1
  %11 = load ptr, ptr %10, align 8
  %12 = load i32, ptr %4, align 4
  %13 = call noundef ptr @_ZNK4llvm7PHINode16getIncomingBlockEj(ptr noundef nonnull align 8 dereferenceable(76) %11, i32 noundef %12)
  %14 = call noundef zeroext i1 @_ZNK4llvm17DominatorTreeBaseINS_10BasicBlockELb0EE20isReachableFromEntryEPKS1_(ptr noundef nonnull align 8 dereferenceable(124) %9, ptr noundef %13)
  %15 = xor i1 %14, true
  ret i1 %15
}

; Function Attrs: mustprogress nounwind uwtable
define internal noundef zeroext i1 @"_ZN4llvm12function_refIFbjEE11callback_fnIZN12_GLOBAL__N_13CHR16cloneScopeBlocksEPNS4_8CHRScopeEPNS_10BasicBlockES9_PNS_6RegionERNS_8ValueMapIPKNS_5ValueENS_14WeakTrackingVHENS_14ValueMapConfigISF_NS_3sys10SmartMutexILb0EEEEEEEE3$_0EEblj"(i64 noundef %0, i32 noundef %1) #1 align 2 {
  %3 = alloca i64, align 8
  %4 = alloca i32, align 4
  store i64 %0, ptr %3, align 8
  store i32 %1, ptr %4, align 4
  %5 = load i64, ptr %3, align 8
  %6 = inttoptr i64 %5 to ptr
  %7 = load i32, ptr %4, align 4
  %8 = call noundef zeroext i1 @"_ZZN12_GLOBAL__N_13CHR16cloneScopeBlocksEPNS_8CHRScopeEPN4llvm10BasicBlockES5_PNS3_6RegionERNS3_8ValueMapIPKNS3_5ValueENS3_14WeakTrackingVHENS3_14ValueMapConfigISB_NS3_3sys10SmartMutexILb0EEEEEEEENK3$_0clEj"(ptr noundef nonnull align 8 dereferenceable(16) %6, i32 noundef %7)
  ret i1 %8
}