; Function Attrs: mustprogress nounwind uwtable
define internal noundef zeroext i1 @"_ZN4llvm12function_refIFbjEE11callback_fnIZN12_GLOBAL__N_13CHR16cloneScopeBlocksEPNS4_8CHRScopeEPNS_10BasicBlockES9_PNS_6RegionERNS_8ValueMapIPKNS_5ValueENS_14WeakTrackingVHENS_14ValueMapConfigISF_NS_3sys10SmartMutexILb0EEEEEEEE3$_0EEblj"(i64 noundef %0, i32 noundef %1) #0 align 2 {
  %3 = inttoptr i64 %0 to ptr
  %.val = load ptr, ptr %3, align 8
  %4 = getelementptr i8, ptr %3, i64 8
  %.val2 = load ptr, ptr %4, align 8
  %5 = getelementptr i8, ptr %.val, i64 16
  %.val.val = load ptr, ptr %5, align 8
  %6 = getelementptr i8, ptr %.val2, i64 -8
  %.val2.val = load ptr, ptr %6, align 8
  %7 = getelementptr i8, ptr %.val2, i64 72
  %.val2.val3 = load i32, ptr %7, align 8
  %8 = zext i32 %.val2.val3 to i64
  %9 = getelementptr inbounds %"class.llvm::Use", ptr %.val2.val, i64 %8
  %10 = zext i32 %1 to i64
  %11 = getelementptr inbounds ptr, ptr %9, i64 %10
  %12 = load ptr, ptr %11, align 8
  %13 = tail call noundef zeroext i1 @_ZNK4llvm17DominatorTreeBaseINS_10BasicBlockELb0EE20isReachableFromEntryEPKS1_(ptr noundef nonnull align 8 dereferenceable(124) %.val.val, ptr noundef %12) #22
  %14 = xor i1 %13, true
  ret i1 %14
}